target datalayout = "e-m:e-p270:32:32-p271:32:32-p272:64:64-i64:64-i128:128-f80:128-n8:16:32:64-S128"
target triple = "x86_64-pc-linux-gnu"

%struct.packed_commit_list = type { ptr, i64, i64 }
%struct.write_commit_graph_context = type { ptr, ptr, ptr, %struct.oid_array, %struct.packed_commit_list, i32, i32, i64, ptr, i32, i64, ptr, i32, i32, ptr, ptr, ptr, i32, ptr, i8, ptr, ptr, i64, ptr, i32, i32, i32, i32, i32 }
%struct.oid_array = type { ptr, i64, i64, i32 }
%struct.bloom_filter = type { ptr, i64, i32, ptr }

; Function Attrs: inlinehint nounwind uwtable
define internal i32 @default_swab32(i32 noundef %0) #5 {
  %2 = alloca i32, align 4
  store i32 %0, ptr %2, align 4, !tbaa !4
  %3 = load i32, ptr %2, align 4, !tbaa !4
  %4 = and i32 %3, -16777216
  %5 = lshr i32 %4, 24
  %6 = load i32, ptr %2, align 4, !tbaa !4
  %7 = and i32 %6, 16711680
  %8 = lshr i32 %7, 8
  %9 = or i32 %5, %8
  %10 = load i32, ptr %2, align 4, !tbaa !4
  %11 = and i32 %10, 65280
  %12 = shl i32 %11, 8
  %13 = or i32 %9, %12
  %14 = load i32, ptr %2, align 4, !tbaa !4
  %15 = and i32 %14, 255
  %16 = shl i32 %15, 24
  %17 = or i32 %13, %16
  ret i32 %17
}

; Function Attrs: inlinehint nounwind uwtable
define internal i32 @git_bswap32(i32 noundef %0) #5 {
  %2 = alloca i32, align 4
  %3 = alloca i32, align 4
  store i32 %0, ptr %2, align 4, !tbaa !4
  call void @llvm.lifetime.start.p0(i64 4, ptr %3) #12
  %4 = load i32, ptr %2, align 4, !tbaa !4
  %5 = call i1 @llvm.is.constant.i32(i32 %4)
  br i1 %5, label %6, label %9

6:                                                ; preds = %1
  %7 = load i32, ptr %2, align 4, !tbaa !4
  %8 = call i32 @default_swab32(i32 noundef %7)
  store i32 %8, ptr %3, align 4, !tbaa !4
  br label %12

9:                                                ; preds = %1
  %10 = load i32, ptr %2, align 4, !tbaa !4
  %11 = call i32 asm "bswap $0", "=r,0,~{dirflag},~{fpsr},~{flags}"(i32 %10) #16, !srcloc !315
  store i32 %11, ptr %3, align 4, !tbaa !4
  br label %12

12:                                               ; preds = %9, %6
  %13 = load i32, ptr %3, align 4, !tbaa !4
  call void @llvm.lifetime.end.p0(i64 4, ptr %3) #12
  ret i32 %13
}

; Function Attrs: inlinehint nounwind uwtable
define internal void @hashwrite_be32(ptr noundef %0, i32 noundef %1) #5 {
  %3 = alloca ptr, align 8
  %4 = alloca i32, align 4
  store ptr %0, ptr %3, align 8, !tbaa !282
  store i32 %1, ptr %4, align 4, !tbaa !4
  %5 = load i32, ptr %4, align 4, !tbaa !4
  %6 = call i32 @git_bswap32(i32 noundef %5)
  store i32 %6, ptr %4, align 4, !tbaa !4
  %7 = load ptr, ptr %3, align 8, !tbaa !282
  call void @hashwrite(ptr noundef %7, ptr noundef %4, i32 noundef 4)
  ret void
}

; Function Attrs: nounwind uwtable
define internal i32 @write_graph_chunk_bloom_indexes(ptr noundef %0, ptr noundef %1) #0 {
  %3 = alloca ptr, align 8
  %4 = alloca ptr, align 8
  %5 = alloca ptr, align 8
  %6 = alloca ptr, align 8
  %7 = alloca ptr, align 8
  %8 = alloca i32, align 4
  %9 = alloca ptr, align 8
  %10 = alloca i64, align 8
  store ptr %0, ptr %3, align 8, !tbaa !282
  store ptr %1, ptr %4, align 8, !tbaa !78
  call void @llvm.lifetime.start.p0(i64 8, ptr %5) #12
  %11 = load ptr, ptr %4, align 8, !tbaa !78
  store ptr %11, ptr %5, align 8, !tbaa !197
  call void @llvm.lifetime.start.p0(i64 8, ptr %6) #12
  %12 = load ptr, ptr %5, align 8, !tbaa !197
  %13 = getelementptr inbounds nuw %struct.write_commit_graph_context, ptr %12, i32 0, i32 4
  %14 = getelementptr inbounds nuw %struct.packed_commit_list, ptr %13, i32 0, i32 0
  %15 = load ptr, ptr %14, align 8, !tbaa !222
  store ptr %15, ptr %6, align 8, !tbaa !165
  call void @llvm.lifetime.start.p0(i64 8, ptr %7) #12
  %16 = load ptr, ptr %5, align 8, !tbaa !197
  %17 = getelementptr inbounds nuw %struct.write_commit_graph_context, ptr %16, i32 0, i32 4
  %18 = getelementptr inbounds nuw %struct.packed_commit_list, ptr %17, i32 0, i32 0
  %19 = load ptr, ptr %18, align 8, !tbaa !222
  %20 = load ptr, ptr %5, align 8, !tbaa !197
  %21 = getelementptr inbounds nuw %struct.write_commit_graph_context, ptr %20, i32 0, i32 4
  %22 = getelementptr inbounds nuw %struct.packed_commit_list, ptr %21, i32 0, i32 1
  %23 = load i64, ptr %22, align 8, !tbaa !218
  %24 = getelementptr inbounds nuw ptr, ptr %19, i64 %23
  store ptr %24, ptr %7, align 8, !tbaa !165
  call void @llvm.lifetime.start.p0(i64 4, ptr %8) #12
  store i32 0, ptr %8, align 4, !tbaa !4
  br label %25

25:                                               ; preds = %43, %2
  %26 = load ptr, ptr %6, align 8, !tbaa !165
  %27 = load ptr, ptr %7, align 8, !tbaa !165
  %28 = icmp ult ptr %26, %27
  br i1 %28, label %29, label %61

29:                                               ; preds = %25
  call void @llvm.lifetime.start.p0(i64 8, ptr %9) #12
  %30 = load ptr, ptr %5, align 8, !tbaa !197
  %31 = getelementptr inbounds nuw %struct.write_commit_graph_context, ptr %30, i32 0, i32 0
  %32 = load ptr, ptr %31, align 8, !tbaa !199
  %33 = load ptr, ptr %6, align 8, !tbaa !165
  %34 = load ptr, ptr %33, align 8, !tbaa !52
  %35 = call ptr @get_bloom_filter(ptr noundef %32, ptr noundef %34)
  store ptr %35, ptr %9, align 8, !tbaa !271
  call void @llvm.lifetime.start.p0(i64 8, ptr %10) #12
  %36 = load ptr, ptr %9, align 8, !tbaa !271
  %37 = icmp ne ptr %36, null
  br i1 %37, label %38, label %42

38:                                               ; preds = %29
  %39 = load ptr, ptr %9, align 8, !tbaa !271
  %40 = getelementptr inbounds nuw %struct.bloom_filter, ptr %39, i32 0, i32 1
  %41 = load i64, ptr %40, align 8, !tbaa !277
  br label %43

42:                                               ; preds = %29
  br label %43

43:                                               ; preds = %42, %38
  %44 = phi i64 [ %41, %38 ], [ 0, %42 ]
  store i64 %44, ptr %10, align 8, !tbaa !73
  %45 = load i64, ptr %10, align 8, !tbaa !73
  %46 = load i32, ptr %8, align 4, !tbaa !4
  %47 = zext i32 %46 to i64
  %48 = add i64 %47, %45
  %49 = trunc i64 %48 to i32
  store i32 %49, ptr %8, align 4, !tbaa !4
  %50 = load ptr, ptr %5, align 8, !tbaa !197
  %51 = getelementptr inbounds nuw %struct.write_commit_graph_context, ptr %50, i32 0, i32 8
  %52 = load ptr, ptr %51, align 8, !tbaa !242
  %53 = load ptr, ptr %5, align 8, !tbaa !197
  %54 = getelementptr inbounds nuw %struct.write_commit_graph_context, ptr %53, i32 0, i32 10
  %55 = load i64, ptr %54, align 8, !tbaa !365
  %56 = add i64 %55, 1
  store i64 %56, ptr %54, align 8, !tbaa !365
  call void @display_progress(ptr noundef %52, i64 noundef %56)
  %57 = load ptr, ptr %3, align 8, !tbaa !282
  %58 = load i32, ptr %8, align 4, !tbaa !4
  call void @hashwrite_be32(ptr noundef %57, i32 noundef %58)
  %59 = load ptr, ptr %6, align 8, !tbaa !165
  %60 = getelementptr inbounds nuw ptr, ptr %59, i32 1
  store ptr %60, ptr %6, align 8, !tbaa !165
  call void @llvm.lifetime.end.p0(i64 8, ptr %10) #12
  call void @llvm.lifetime.end.p0(i64 8, ptr %9) #12
  br label %25, !llvm.loop !376

61:                                               ; preds = %25
  call void @llvm.lifetime.end.p0(i64 4, ptr %8) #12
  call void @llvm.lifetime.end.p0(i64 8, ptr %7) #12
  call void @llvm.lifetime.end.p0(i64 8, ptr %6) #12
  call void @llvm.lifetime.end.p0(i64 8, ptr %5) #12
  ret i32 0
}