; Function Attrs: nounwind uwtable
define internal noundef i32 @write_graph_chunk_bloom_indexes(ptr noundef %0, ptr noundef captures(none) %1) #0 {
  %3 = alloca i32, align 4
  %4 = getelementptr inbounds nuw i8, ptr %1, i64 56
  %5 = load ptr, ptr %4, align 8, !tbaa !224
  %6 = getelementptr inbounds nuw i8, ptr %1, i64 64
  %7 = load i64, ptr %6, align 8, !tbaa !222
  %8 = getelementptr inbounds nuw ptr, ptr %5, i64 %7
  %.not20 = icmp eq i64 %7, 0
  br i1 %.not20, label %._crit_edge, label %.lr.ph

.lr.ph:                                           ; preds = %2
  %9 = getelementptr inbounds nuw i8, ptr %1, i64 96
  %10 = getelementptr inbounds nuw i8, ptr %1, i64 112
  br label %11

11:                                               ; preds = %.lr.ph, %hashwrite_be32.exit
  %.019 = phi ptr [ %5, %.lr.ph ], [ %25, %hashwrite_be32.exit ]
  %.01618 = phi i64 [ 0, %.lr.ph ], [ %19, %hashwrite_be32.exit ]
  %12 = load ptr, ptr %1, align 8, !tbaa !178
  %13 = load ptr, ptr %.019, align 8, !tbaa !165
  %14 = call ptr @get_bloom_filter(ptr noundef %12, ptr noundef %13) #24
  %.not = icmp eq ptr %14, null
  br i1 %.not, label %hashwrite_be32.exit, label %15

15:                                               ; preds = %11
  %16 = getelementptr inbounds nuw i8, ptr %14, i64 8
  %17 = load i64, ptr %16, align 8, !tbaa !277
  br label %hashwrite_be32.exit

hashwrite_be32.exit:                              ; preds = %11, %15
  %18 = phi i64 [ %17, %15 ], [ 0, %11 ]
  %19 = add i64 %18, %.01618
  %20 = load ptr, ptr %9, align 8, !tbaa !203
  %21 = load i64, ptr %10, align 8, !tbaa !303
  %22 = add i64 %21, 1
  store i64 %22, ptr %10, align 8, !tbaa !303
  call void @display_progress(ptr noundef %20, i64 noundef %22) #24
  call void @llvm.lifetime.start.p0(i64 4, ptr nonnull %3)
  %23 = trunc i64 %19 to i32
  %24 = call i32 asm "bswap $0", "=r,0,~{dirflag},~{fpsr},~{flags}"(i32 %23) #26, !srcloc !96
  store i32 %24, ptr %3, align 4, !tbaa !47
  call void @hashwrite(ptr noundef %0, ptr noundef nonnull %3, i32 noundef 4) #24
  call void @llvm.lifetime.end.p0(i64 4, ptr nonnull %3)
  %25 = getelementptr inbounds nuw i8, ptr %.019, i64 8
  %26 = icmp ult ptr %25, %8
  br i1 %26, label %11, label %._crit_edge, !llvm.loop !315

._crit_edge:                                      ; preds = %hashwrite_be32.exit, %2
  ret i32 0
}